target datalayout = "e-m:e-p270:32:32-p271:32:32-p272:64:64-i64:64-i128:128-f80:128-n8:16:32:64-S128"
target triple = "x86_64-pc-linux-gnu"

%struct.epan_column_info = type { ptr, i32, ptr, ptr, ptr, %struct.col_expr_t, i32, ptr }
%struct.col_expr_t = type { ptr, ptr }
%struct.col_item_t = type { i32, ptr, ptr, ptr, i32, ptr, ptr, ptr, ptr, i32, i32, i32 }

; Function Attrs: nounwind uwtable
define i32 @col_get_writable(ptr noundef %0, i32 noundef %1) #0 {
  %3 = alloca i32, align 4
  %4 = alloca ptr, align 8
  %5 = alloca i32, align 4
  %6 = alloca i32, align 4
  %7 = alloca ptr, align 8
  store ptr %0, ptr %4, align 8
  store i32 %1, ptr %5, align 4
  %8 = load ptr, ptr %4, align 8
  %9 = icmp eq ptr %8, null
  br i1 %9, label %10, label %11

10:                                               ; preds = %2
  store i32 0, ptr %3, align 4
  br label %75

11:                                               ; preds = %2
  %12 = load i32, ptr %5, align 4
  %13 = icmp eq i32 %12, -1
  br i1 %13, label %19, label %14

14:                                               ; preds = %11
  %15 = load ptr, ptr %4, align 8
  %16 = getelementptr inbounds %struct.epan_column_info, ptr %15, i32 0, i32 6
  %17 = load i32, ptr %16, align 8
  %18 = icmp eq i32 %17, 0
  br i1 %18, label %19, label %23

19:                                               ; preds = %14, %11
  %20 = load ptr, ptr %4, align 8
  %21 = getelementptr inbounds %struct.epan_column_info, ptr %20, i32 0, i32 6
  %22 = load i32, ptr %21, align 8
  store i32 %22, ptr %3, align 4
  br label %75

23:                                               ; preds = %14
  %24 = load ptr, ptr %4, align 8
  %25 = getelementptr inbounds %struct.epan_column_info, ptr %24, i32 0, i32 3
  %26 = load ptr, ptr %25, align 8
  %27 = load i32, ptr %5, align 4
  %28 = sext i32 %27 to i64
  %29 = getelementptr i32, ptr %26, i64 %28
  %30 = load i32, ptr %29, align 4
  %31 = icmp sge i32 %30, 0
  br i1 %31, label %32, label %74

32:                                               ; preds = %23
  %33 = load ptr, ptr %4, align 8
  %34 = getelementptr inbounds %struct.epan_column_info, ptr %33, i32 0, i32 3
  %35 = load ptr, ptr %34, align 8
  %36 = load i32, ptr %5, align 4
  %37 = sext i32 %36 to i64
  %38 = getelementptr i32, ptr %35, i64 %37
  %39 = load i32, ptr %38, align 4
  store i32 %39, ptr %6, align 4
  br label %40

40:                                               ; preds = %70, %32
  %41 = load i32, ptr %6, align 4
  %42 = load ptr, ptr %4, align 8
  %43 = getelementptr inbounds %struct.epan_column_info, ptr %42, i32 0, i32 4
  %44 = load ptr, ptr %43, align 8
  %45 = load i32, ptr %5, align 4
  %46 = sext i32 %45 to i64
  %47 = getelementptr i32, ptr %44, i64 %46
  %48 = load i32, ptr %47, align 4
  %49 = icmp sle i32 %41, %48
  br i1 %49, label %50, label %73

50:                                               ; preds = %40
  %51 = load ptr, ptr %4, align 8
  %52 = getelementptr inbounds %struct.epan_column_info, ptr %51, i32 0, i32 2
  %53 = load ptr, ptr %52, align 8
  %54 = load i32, ptr %6, align 4
  %55 = sext i32 %54 to i64
  %56 = getelementptr %struct.col_item_t, ptr %53, i64 %55
  store ptr %56, ptr %7, align 8
  %57 = load ptr, ptr %7, align 8
  %58 = getelementptr inbounds %struct.col_item_t, ptr %57, i32 0, i32 1
  %59 = load ptr, ptr %58, align 8
  %60 = load i32, ptr %5, align 4
  %61 = sext i32 %60 to i64
  %62 = getelementptr i32, ptr %59, i64 %61
  %63 = load i32, ptr %62, align 4
  %64 = icmp ne i32 %63, 0
  br i1 %64, label %65, label %69

65:                                               ; preds = %50
  %66 = load ptr, ptr %7, align 8
  %67 = getelementptr inbounds %struct.col_item_t, ptr %66, i32 0, i32 10
  %68 = load i32, ptr %67, align 4
  store i32 %68, ptr %3, align 4
  br label %75

69:                                               ; preds = %50
  br label %70

70:                                               ; preds = %69
  %71 = load i32, ptr %6, align 4
  %72 = add i32 %71, 1
  store i32 %72, ptr %6, align 4
  br label %40, !llvm.loop !9

73:                                               ; preds = %40
  br label %74

74:                                               ; preds = %73, %23
  store i32 0, ptr %3, align 4
  br label %75

75:                                               ; preds = %74, %65, %19, %10
  %76 = load i32, ptr %3, align 4
  ret i32 %76
}

; Function Attrs: nounwind uwtable
define void @col_add_str(ptr noundef %0, i32 noundef %1, ptr noundef %2) #0 {
  %4 = alloca ptr, align 8
  %5 = alloca i32, align 4
  %6 = alloca ptr, align 8
  %7 = alloca i32, align 4
  %8 = alloca i64, align 8
  %9 = alloca ptr, align 8
  store ptr %0, ptr %4, align 8
  store i32 %1, ptr %5, align 4
  store ptr %2, ptr %6, align 8
  %10 = load ptr, ptr %4, align 8
  %11 = load i32, ptr %5, align 4
  %12 = call i32 @col_get_writable(ptr noundef %10, i32 noundef %11)
  %13 = icmp ne i32 %12, 0
  br i1 %13, label %14, label %23

14:                                               ; preds = %3
  %15 = load ptr, ptr %4, align 8
  %16 = getelementptr inbounds %struct.epan_column_info, ptr %15, i32 0, i32 3
  %17 = load ptr, ptr %16, align 8
  %18 = load i32, ptr %5, align 4
  %19 = sext i32 %18 to i64
  %20 = getelementptr i32, ptr %17, i64 %19
  %21 = load i32, ptr %20, align 4
  %22 = icmp sge i32 %21, 0
  br i1 %22, label %24, label %23

23:                                               ; preds = %14, %3
  br label %113

24:                                               ; preds = %14
  %25 = load i32, ptr %5, align 4
  %26 = icmp eq i32 %25, 25
  br i1 %26, label %27, label %28

27:                                               ; preds = %24
  store i64 4096, ptr %8, align 8
  br label %29

28:                                               ; preds = %24
  store i64 2048, ptr %8, align 8
  br label %29

29:                                               ; preds = %28, %27
  %30 = load ptr, ptr %4, align 8
  %31 = getelementptr inbounds %struct.epan_column_info, ptr %30, i32 0, i32 3
  %32 = load ptr, ptr %31, align 8
  %33 = load i32, ptr %5, align 4
  %34 = sext i32 %33 to i64
  %35 = getelementptr i32, ptr %32, i64 %34
  %36 = load i32, ptr %35, align 4
  store i32 %36, ptr %7, align 4
  br label %37

37:                                               ; preds = %110, %29
  %38 = load i32, ptr %7, align 4
  %39 = load ptr, ptr %4, align 8
  %40 = getelementptr inbounds %struct.epan_column_info, ptr %39, i32 0, i32 4
  %41 = load ptr, ptr %40, align 8
  %42 = load i32, ptr %5, align 4
  %43 = sext i32 %42 to i64
  %44 = getelementptr i32, ptr %41, i64 %43
  %45 = load i32, ptr %44, align 4
  %46 = icmp sle i32 %38, %45
  br i1 %46, label %47, label %113

47:                                               ; preds = %37
  %48 = load ptr, ptr %4, align 8
  %49 = getelementptr inbounds %struct.epan_column_info, ptr %48, i32 0, i32 2
  %50 = load ptr, ptr %49, align 8
  %51 = load i32, ptr %7, align 4
  %52 = sext i32 %51 to i64
  %53 = getelementptr %struct.col_item_t, ptr %50, i64 %52
  store ptr %53, ptr %9, align 8
  %54 = load ptr, ptr %9, align 8
  %55 = getelementptr inbounds %struct.col_item_t, ptr %54, i32 0, i32 1
  %56 = load ptr, ptr %55, align 8
  %57 = load i32, ptr %5, align 4
  %58 = sext i32 %57 to i64
  %59 = getelementptr i32, ptr %56, i64 %58
  %60 = load i32, ptr %59, align 4
  %61 = icmp ne i32 %60, 0
  br i1 %61, label %62, label %109

62:                                               ; preds = %47
  %63 = load ptr, ptr %9, align 8
  %64 = getelementptr inbounds %struct.col_item_t, ptr %63, i32 0, i32 9
  %65 = load i32, ptr %64, align 8
  %66 = icmp ne i32 %65, 0
  br i1 %66, label %67, label %90

67:                                               ; preds = %62
  %68 = load ptr, ptr %9, align 8
  %69 = getelementptr inbounds %struct.col_item_t, ptr %68, i32 0, i32 7
  %70 = load ptr, ptr %69, align 8
  %71 = load ptr, ptr %9, align 8
  %72 = getelementptr inbounds %struct.col_item_t, ptr %71, i32 0, i32 8
  %73 = load ptr, ptr %72, align 8
  %74 = icmp ne ptr %70, %73
  br i1 %74, label %75, label %89

75:                                               ; preds = %67
  %76 = load ptr, ptr %9, align 8
  %77 = getelementptr inbounds %struct.col_item_t, ptr %76, i32 0, i32 8
  %78 = load ptr, ptr %77, align 8
  %79 = load ptr, ptr %9, align 8
  %80 = getelementptr inbounds %struct.col_item_t, ptr %79, i32 0, i32 7
  %81 = load ptr, ptr %80, align 8
  %82 = load i64, ptr %8, align 8
  %83 = call i64 @g_strlcpy(ptr noundef %78, ptr noundef %81, i64 noundef %82)
  %84 = load ptr, ptr %9, align 8
  %85 = getelementptr inbounds %struct.col_item_t, ptr %84, i32 0, i32 8
  %86 = load ptr, ptr %85, align 8
  %87 = load ptr, ptr %9, align 8
  %88 = getelementptr inbounds %struct.col_item_t, ptr %87, i32 0, i32 7
  store ptr %86, ptr %88, align 8
  br label %89

89:                                               ; preds = %75, %67
  br label %96

90:                                               ; preds = %62
  %91 = load ptr, ptr %9, align 8
  %92 = getelementptr inbounds %struct.col_item_t, ptr %91, i32 0, i32 8
  %93 = load ptr, ptr %92, align 8
  %94 = load ptr, ptr %9, align 8
  %95 = getelementptr inbounds %struct.col_item_t, ptr %94, i32 0, i32 7
  store ptr %93, ptr %95, align 8
  br label %96

96:                                               ; preds = %90, %89
  br label %97

97:                                               ; preds = %96
  br label %98

98:                                               ; preds = %97
  %99 = load ptr, ptr %9, align 8
  %100 = getelementptr inbounds %struct.col_item_t, ptr %99, i32 0, i32 8
  %101 = load ptr, ptr %100, align 8
  %102 = load i64, ptr %8, align 8
  %103 = load ptr, ptr %9, align 8
  %104 = getelementptr inbounds %struct.col_item_t, ptr %103, i32 0, i32 9
  %105 = load i32, ptr %104, align 8
  %106 = sext i32 %105 to i64
  %107 = load ptr, ptr %6, align 8
  %108 = call i64 @ws_label_strcpy(ptr noundef %101, i64 noundef %102, i64 noundef %106, ptr noundef %107, i32 noundef 0)
  br label %109

109:                                              ; preds = %98, %47
  br label %110

110:                                              ; preds = %109
  %111 = load i32, ptr %7, align 4
  %112 = add i32 %111, 1
  store i32 %112, ptr %7, align 4
  br label %37, !llvm.loop !22

113:                                              ; preds = %37, %23
  ret void
}