; Function Attrs: nounwind uwtable
define void @col_add_str(ptr noundef readonly %0, i32 noundef %1, ptr noundef %2) local_unnamed_addr #0 {
  %4 = icmp eq ptr %0, null
  br i1 %4, label %col_get_writable.exit.thread, label %5

5:                                                ; preds = %3
  %6 = icmp eq i32 %1, -1
  %.phi.trans.insert.i = getelementptr inbounds nuw i8, ptr %0, i64 56
  %.pre.i = load i32, ptr %.phi.trans.insert.i, align 8
  br i1 %6, label %col_get_writable.exit, label %7

7:                                                ; preds = %5
  %8 = icmp eq i32 %.pre.i, 0
  br i1 %8, label %col_get_writable.exit.thread, label %9

9:                                                ; preds = %7
  %10 = getelementptr inbounds nuw i8, ptr %0, i64 24
  %11 = load ptr, ptr %10, align 8
  %12 = sext i32 %1 to i64
  %13 = getelementptr i32, ptr %11, i64 %12
  %14 = load i32, ptr %13, align 4
  %15 = icmp sgt i32 %14, -1
  br i1 %15, label %.preheader.i, label %col_get_writable.exit.thread

.preheader.i:                                     ; preds = %9
  %16 = getelementptr inbounds nuw i8, ptr %0, i64 32
  %17 = load ptr, ptr %16, align 8
  %18 = getelementptr i32, ptr %17, i64 %12
  %19 = load i32, ptr %18, align 4
  %.not22.i = icmp sgt i32 %14, %19
  br i1 %.not22.i, label %col_get_writable.exit.thread, label %.lr.ph.i

.lr.ph.i:                                         ; preds = %.preheader.i
  %20 = getelementptr inbounds nuw i8, ptr %0, i64 16
  %21 = load ptr, ptr %20, align 8
  br label %24

22:                                               ; preds = %24
  %23 = add i32 %.01723.i, 1
  %.not.i = icmp sgt i32 %23, %19
  br i1 %.not.i, label %col_get_writable.exit.thread, label %24, !llvm.loop !9

24:                                               ; preds = %22, %.lr.ph.i
  %.01723.i = phi i32 [ %14, %.lr.ph.i ], [ %23, %22 ]
  %25 = sext i32 %.01723.i to i64
  %26 = getelementptr %struct.col_item_t, ptr %21, i64 %25
  %27 = getelementptr inbounds nuw i8, ptr %26, i64 8
  %28 = load ptr, ptr %27, align 8
  %29 = getelementptr i32, ptr %28, i64 %12
  %30 = load i32, ptr %29, align 4
  %.not21.i = icmp eq i32 %30, 0
  br i1 %.not21.i, label %22, label %31

31:                                               ; preds = %24
  %32 = getelementptr inbounds nuw i8, ptr %26, i64 76
  %33 = load i32, ptr %32, align 4
  br label %col_get_writable.exit

col_get_writable.exit:                            ; preds = %5, %31
  %.0.i = phi i32 [ %33, %31 ], [ %.pre.i, %5 ]
  %.not = icmp eq i32 %.0.i, 0
  br i1 %.not, label %col_get_writable.exit.thread, label %34

34:                                               ; preds = %col_get_writable.exit
  %35 = getelementptr inbounds nuw i8, ptr %0, i64 24
  %36 = load ptr, ptr %35, align 8
  %37 = sext i32 %1 to i64
  %38 = getelementptr i32, ptr %36, i64 %37
  %39 = load i32, ptr %38, align 4
  %40 = icmp sgt i32 %39, -1
  br i1 %40, label %41, label %col_get_writable.exit.thread

41:                                               ; preds = %34
  %42 = icmp eq i32 %1, 25
  %. = select i1 %42, i64 4096, i64 2048
  %43 = getelementptr inbounds nuw i8, ptr %0, i64 32
  %44 = load ptr, ptr %43, align 8
  %45 = getelementptr i32, ptr %44, i64 %37
  %46 = load i32, ptr %45, align 4
  %.not3139 = icmp sgt i32 %39, %46
  br i1 %.not3139, label %col_get_writable.exit.thread, label %.lr.ph

.lr.ph:                                           ; preds = %41
  %47 = getelementptr inbounds nuw i8, ptr %0, i64 16
  br label %48

48:                                               ; preds = %.lr.ph, %77
  %49 = phi ptr [ %44, %.lr.ph ], [ %78, %77 ]
  %.040 = phi i32 [ %39, %.lr.ph ], [ %79, %77 ]
  %50 = load ptr, ptr %47, align 8
  %51 = sext i32 %.040 to i64
  %52 = getelementptr %struct.col_item_t, ptr %50, i64 %51
  %53 = getelementptr inbounds nuw i8, ptr %52, i64 8
  %54 = load ptr, ptr %53, align 8
  %55 = getelementptr i32, ptr %54, i64 %37
  %56 = load i32, ptr %55, align 4
  %.not32 = icmp eq i32 %56, 0
  br i1 %.not32, label %77, label %57

57:                                               ; preds = %48
  %58 = getelementptr inbounds nuw i8, ptr %52, i64 72
  %59 = load i32, ptr %58, align 8
  %.not33 = icmp eq i32 %59, 0
  br i1 %.not33, label %68, label %60

60:                                               ; preds = %57
  %61 = getelementptr inbounds nuw i8, ptr %52, i64 56
  %62 = load ptr, ptr %61, align 8
  %63 = getelementptr inbounds nuw i8, ptr %52, i64 64
  %64 = load ptr, ptr %63, align 8
  %.not34 = icmp eq ptr %62, %64
  br i1 %.not34, label %72, label %65

65:                                               ; preds = %60
  %66 = tail call i64 @g_strlcpy(ptr noundef %64, ptr noundef %62, i64 noundef %.) #16
  %67 = load ptr, ptr %63, align 8
  store ptr %67, ptr %61, align 8
  %.pre = load i32, ptr %58, align 8
  br label %72

68:                                               ; preds = %57
  %69 = getelementptr inbounds nuw i8, ptr %52, i64 64
  %70 = load ptr, ptr %69, align 8
  %71 = getelementptr inbounds nuw i8, ptr %52, i64 56
  store ptr %70, ptr %71, align 8
  br label %72

72:                                               ; preds = %60, %65, %68
  %73 = phi i32 [ %59, %60 ], [ %.pre, %65 ], [ 0, %68 ]
  %74 = phi ptr [ %64, %60 ], [ %67, %65 ], [ %70, %68 ]
  %75 = sext i32 %73 to i64
  %76 = tail call i64 @ws_label_strcpy(ptr noundef %74, i64 noundef %., i64 noundef %75, ptr noundef %2, i32 noundef 0) #16
  %.pre43 = load ptr, ptr %43, align 8
  br label %77

77:                                               ; preds = %48, %72
  %78 = phi ptr [ %49, %48 ], [ %.pre43, %72 ]
  %79 = add i32 %.040, 1
  %80 = getelementptr i32, ptr %78, i64 %37
  %81 = load i32, ptr %80, align 4
  %.not31 = icmp sgt i32 %79, %81
  br i1 %.not31, label %col_get_writable.exit.thread, label %48, !llvm.loop !22

col_get_writable.exit.thread:                     ; preds = %22, %77, %41, %7, %.preheader.i, %9, %3, %col_get_writable.exit, %34
  ret void
}